ccopy_reg
_reconstructor
p0
(cpandas.core.series
Series
p1
c__builtin__
object
p2
Ntp3
Rp4
(dp5
S'_data'
p6
g0
(cpandas.core.internals
SingleBlockManager
p7
g2
Ntp8
Rp9
((lp10
cnumpy.core.multiarray
_reconstruct
p11
(cpandas.core.index
Index
p12
(I0
tp13
S'b'
p14
tp15
Rp16
((I1
(L1L
tp17
cnumpy
dtype
p18
(S'O8'
p19
I0
I1
tp20
Rp21
(I3
S'|'
p22
NNNI-1
I-1
I63
tp23
bI00
(lp24
S'WN'
p25
atp26
(Ntp27
tp28
ba(lp29
g11
(cnumpy
ndarray
p30
(I0
tp31
g14
tp32
Rp33
(I1
(L1L
tp34
g18
(S'i8'
p35
I0
I1
tp36
Rp37
(I3
S'<'
p38
NNNI-1
I-1
I0
tp39
bI00
S'\x00\x00\x00\x00\x00\x00\x00\x00'
p40
tp41
ba(lp42
g16
atp43
bsS'name'
p44
Nsb.